ARM GAS  C:\Users\User\AppData\Local\Temp\ccHQyINu.s 			page 1


   1              		.syntax unified
   2              		.cpu cortex-m3
   3              		.fpu softvfp
   4              		.eabi_attribute 20, 1
   5              		.eabi_attribute 21, 1
   6              		.eabi_attribute 23, 3
   7              		.eabi_attribute 24, 1
   8              		.eabi_attribute 25, 1
   9              		.eabi_attribute 26, 1
  10              		.eabi_attribute 30, 1
  11              		.eabi_attribute 34, 1
  12              		.eabi_attribute 18, 4
  13              		.thumb
  14              		.syntax unified
  15              		.file	"main.c"
  16              		.text
  17              	.Ltext0:
  18              		.cfi_sections	.debug_frame
  19              		.section	.text.clear,"ax",%progbits
  20              		.align	2
  21              		.global	clear
  22              		.thumb
  23              		.thumb_func
  24              		.type	clear, %function
  25              	clear:
  26              	.LFB63:
  27              		.file 1 "main.c"
   1:main.c        **** /* ========================================
   2:main.c        ****  *
   3:main.c        ****  * Copyright YOUR COMPANY, THE YEAR
   4:main.c        ****  * All Rights Reserved
   5:main.c        ****  * UNPUBLISHED, LICENSED SOFTWARE.
   6:main.c        ****  *
   7:main.c        ****  * CONFIDENTIAL AND PROPRIETARY INFORMATION
   8:main.c        ****  * WHICH IS THE PROPERTY OF your company.
   9:main.c        ****  *
  10:main.c        ****  * ========================================
  11:main.c        **** */
  12:main.c        **** #include "project.h"
  13:main.c        **** 
  14:main.c        **** void clear(){
  28              		.loc 1 14 0
  29              		.cfi_startproc
  30              		@ args = 0, pretend = 0, frame = 0
  31              		@ frame_needed = 0, uses_anonymous_args = 0
  32 0000 08B5     		push	{r3, lr}
  33              		.cfi_def_cfa_offset 8
  34              		.cfi_offset 3, -8
  35              		.cfi_offset 14, -4
  15:main.c        ****     LED_5_Write(0);
  36              		.loc 1 15 0
  37 0002 0020     		movs	r0, #0
  38 0004 FFF7FEFF 		bl	LED_5_Write
  39              	.LVL0:
  16:main.c        ****     LED_1_Write(0);
  40              		.loc 1 16 0
  41 0008 0020     		movs	r0, #0
ARM GAS  C:\Users\User\AppData\Local\Temp\ccHQyINu.s 			page 2


  42 000a FFF7FEFF 		bl	LED_1_Write
  43              	.LVL1:
  17:main.c        ****     LED_3_Write(0);
  44              		.loc 1 17 0
  45 000e 0020     		movs	r0, #0
  46 0010 FFF7FEFF 		bl	LED_3_Write
  47              	.LVL2:
  18:main.c        ****     LED_7_Write(0);
  48              		.loc 1 18 0
  49 0014 0020     		movs	r0, #0
  50 0016 FFF7FEFF 		bl	LED_7_Write
  51              	.LVL3:
  19:main.c        ****     LED_4_Write(0);
  52              		.loc 1 19 0
  53 001a 0020     		movs	r0, #0
  54 001c FFF7FEFF 		bl	LED_4_Write
  55              	.LVL4:
  20:main.c        ****     LED_2_Write(0);
  56              		.loc 1 20 0
  57 0020 0020     		movs	r0, #0
  58 0022 FFF7FEFF 		bl	LED_2_Write
  59              	.LVL5:
  21:main.c        ****     LED_6_Write(0);
  60              		.loc 1 21 0
  61 0026 0020     		movs	r0, #0
  62 0028 FFF7FEFF 		bl	LED_6_Write
  63              	.LVL6:
  64 002c 08BD     		pop	{r3, pc}
  65              		.cfi_endproc
  66              	.LFE63:
  67              		.size	clear, .-clear
  68 002e 00BF     		.section	.text.one,"ax",%progbits
  69              		.align	2
  70              		.global	one
  71              		.thumb
  72              		.thumb_func
  73              		.type	one, %function
  74              	one:
  75              	.LFB64:
  22:main.c        **** }
  23:main.c        **** 
  24:main.c        **** void one(){
  76              		.loc 1 24 0
  77              		.cfi_startproc
  78              		@ args = 0, pretend = 0, frame = 0
  79              		@ frame_needed = 0, uses_anonymous_args = 0
  80 0000 08B5     		push	{r3, lr}
  81              		.cfi_def_cfa_offset 8
  82              		.cfi_offset 3, -8
  83              		.cfi_offset 14, -4
  25:main.c        ****     clear();
  84              		.loc 1 25 0
  85 0002 FFF7FEFF 		bl	clear
  86              	.LVL7:
  26:main.c        ****     LED_4_Write(1);
  87              		.loc 1 26 0
  88 0006 0120     		movs	r0, #1
ARM GAS  C:\Users\User\AppData\Local\Temp\ccHQyINu.s 			page 3


  89 0008 FFF7FEFF 		bl	LED_4_Write
  90              	.LVL8:
  91 000c 08BD     		pop	{r3, pc}
  92              		.cfi_endproc
  93              	.LFE64:
  94              		.size	one, .-one
  95 000e 00BF     		.section	.text.two,"ax",%progbits
  96              		.align	2
  97              		.global	two
  98              		.thumb
  99              		.thumb_func
 100              		.type	two, %function
 101              	two:
 102              	.LFB65:
  27:main.c        **** }
  28:main.c        **** 
  29:main.c        **** void two(){
 103              		.loc 1 29 0
 104              		.cfi_startproc
 105              		@ args = 0, pretend = 0, frame = 0
 106              		@ frame_needed = 0, uses_anonymous_args = 0
 107 0000 08B5     		push	{r3, lr}
 108              		.cfi_def_cfa_offset 8
 109              		.cfi_offset 3, -8
 110              		.cfi_offset 14, -4
  30:main.c        ****     clear();
 111              		.loc 1 30 0
 112 0002 FFF7FEFF 		bl	clear
 113              	.LVL9:
  31:main.c        ****     LED_5_Write(1);
 114              		.loc 1 31 0
 115 0006 0120     		movs	r0, #1
 116 0008 FFF7FEFF 		bl	LED_5_Write
 117              	.LVL10:
  32:main.c        ****     LED_1_Write(1);
 118              		.loc 1 32 0
 119 000c 0120     		movs	r0, #1
 120 000e FFF7FEFF 		bl	LED_1_Write
 121              	.LVL11:
 122 0012 08BD     		pop	{r3, pc}
 123              		.cfi_endproc
 124              	.LFE65:
 125              		.size	two, .-two
 126              		.section	.text.three,"ax",%progbits
 127              		.align	2
 128              		.global	three
 129              		.thumb
 130              		.thumb_func
 131              		.type	three, %function
 132              	three:
 133              	.LFB66:
  33:main.c        **** }
  34:main.c        **** 
  35:main.c        **** void three(){
 134              		.loc 1 35 0
 135              		.cfi_startproc
 136              		@ args = 0, pretend = 0, frame = 0
ARM GAS  C:\Users\User\AppData\Local\Temp\ccHQyINu.s 			page 4


 137              		@ frame_needed = 0, uses_anonymous_args = 0
 138 0000 08B5     		push	{r3, lr}
 139              		.cfi_def_cfa_offset 8
 140              		.cfi_offset 3, -8
 141              		.cfi_offset 14, -4
  36:main.c        ****     clear();
 142              		.loc 1 36 0
 143 0002 FFF7FEFF 		bl	clear
 144              	.LVL12:
  37:main.c        ****     LED_5_Write(1);
 145              		.loc 1 37 0
 146 0006 0120     		movs	r0, #1
 147 0008 FFF7FEFF 		bl	LED_5_Write
 148              	.LVL13:
  38:main.c        ****     LED_1_Write(1);
 149              		.loc 1 38 0
 150 000c 0120     		movs	r0, #1
 151 000e FFF7FEFF 		bl	LED_1_Write
 152              	.LVL14:
  39:main.c        ****     LED_4_Write(1);
 153              		.loc 1 39 0
 154 0012 0120     		movs	r0, #1
 155 0014 FFF7FEFF 		bl	LED_4_Write
 156              	.LVL15:
 157 0018 08BD     		pop	{r3, pc}
 158              		.cfi_endproc
 159              	.LFE66:
 160              		.size	three, .-three
 161 001a 00BF     		.section	.text.four,"ax",%progbits
 162              		.align	2
 163              		.global	four
 164              		.thumb
 165              		.thumb_func
 166              		.type	four, %function
 167              	four:
 168              	.LFB67:
  40:main.c        **** }
  41:main.c        **** 
  42:main.c        **** void four(){
 169              		.loc 1 42 0
 170              		.cfi_startproc
 171              		@ args = 0, pretend = 0, frame = 0
 172              		@ frame_needed = 0, uses_anonymous_args = 0
 173 0000 08B5     		push	{r3, lr}
 174              		.cfi_def_cfa_offset 8
 175              		.cfi_offset 3, -8
 176              		.cfi_offset 14, -4
  43:main.c        ****     clear();
 177              		.loc 1 43 0
 178 0002 FFF7FEFF 		bl	clear
 179              	.LVL16:
  44:main.c        ****     LED_5_Write(1);
 180              		.loc 1 44 0
 181 0006 0120     		movs	r0, #1
 182 0008 FFF7FEFF 		bl	LED_5_Write
 183              	.LVL17:
  45:main.c        ****     LED_1_Write(1);
ARM GAS  C:\Users\User\AppData\Local\Temp\ccHQyINu.s 			page 5


 184              		.loc 1 45 0
 185 000c 0120     		movs	r0, #1
 186 000e FFF7FEFF 		bl	LED_1_Write
 187              	.LVL18:
  46:main.c        ****     LED_3_Write(1);
 188              		.loc 1 46 0
 189 0012 0120     		movs	r0, #1
 190 0014 FFF7FEFF 		bl	LED_3_Write
 191              	.LVL19:
  47:main.c        ****     LED_7_Write(1);
 192              		.loc 1 47 0
 193 0018 0120     		movs	r0, #1
 194 001a FFF7FEFF 		bl	LED_7_Write
 195              	.LVL20:
 196 001e 08BD     		pop	{r3, pc}
 197              		.cfi_endproc
 198              	.LFE67:
 199              		.size	four, .-four
 200              		.section	.text.five,"ax",%progbits
 201              		.align	2
 202              		.global	five
 203              		.thumb
 204              		.thumb_func
 205              		.type	five, %function
 206              	five:
 207              	.LFB68:
  48:main.c        **** }
  49:main.c        **** 
  50:main.c        **** void five(){
 208              		.loc 1 50 0
 209              		.cfi_startproc
 210              		@ args = 0, pretend = 0, frame = 0
 211              		@ frame_needed = 0, uses_anonymous_args = 0
 212 0000 08B5     		push	{r3, lr}
 213              		.cfi_def_cfa_offset 8
 214              		.cfi_offset 3, -8
 215              		.cfi_offset 14, -4
  51:main.c        ****     clear();
 216              		.loc 1 51 0
 217 0002 FFF7FEFF 		bl	clear
 218              	.LVL21:
  52:main.c        ****     LED_5_Write(1);
 219              		.loc 1 52 0
 220 0006 0120     		movs	r0, #1
 221 0008 FFF7FEFF 		bl	LED_5_Write
 222              	.LVL22:
  53:main.c        ****     LED_1_Write(1);
 223              		.loc 1 53 0
 224 000c 0120     		movs	r0, #1
 225 000e FFF7FEFF 		bl	LED_1_Write
 226              	.LVL23:
  54:main.c        ****     LED_3_Write(1);
 227              		.loc 1 54 0
 228 0012 0120     		movs	r0, #1
 229 0014 FFF7FEFF 		bl	LED_3_Write
 230              	.LVL24:
  55:main.c        ****     LED_7_Write(1);
ARM GAS  C:\Users\User\AppData\Local\Temp\ccHQyINu.s 			page 6


 231              		.loc 1 55 0
 232 0018 0120     		movs	r0, #1
 233 001a FFF7FEFF 		bl	LED_7_Write
 234              	.LVL25:
  56:main.c        ****     LED_4_Write(1);
 235              		.loc 1 56 0
 236 001e 0120     		movs	r0, #1
 237 0020 FFF7FEFF 		bl	LED_4_Write
 238              	.LVL26:
 239 0024 08BD     		pop	{r3, pc}
 240              		.cfi_endproc
 241              	.LFE68:
 242              		.size	five, .-five
 243 0026 00BF     		.section	.text.six,"ax",%progbits
 244              		.align	2
 245              		.global	six
 246              		.thumb
 247              		.thumb_func
 248              		.type	six, %function
 249              	six:
 250              	.LFB69:
  57:main.c        **** }
  58:main.c        **** 
  59:main.c        **** void six(){
 251              		.loc 1 59 0
 252              		.cfi_startproc
 253              		@ args = 0, pretend = 0, frame = 0
 254              		@ frame_needed = 0, uses_anonymous_args = 0
 255 0000 08B5     		push	{r3, lr}
 256              		.cfi_def_cfa_offset 8
 257              		.cfi_offset 3, -8
 258              		.cfi_offset 14, -4
  60:main.c        ****     clear();
 259              		.loc 1 60 0
 260 0002 FFF7FEFF 		bl	clear
 261              	.LVL27:
  61:main.c        ****     LED_5_Write(1);
 262              		.loc 1 61 0
 263 0006 0120     		movs	r0, #1
 264 0008 FFF7FEFF 		bl	LED_5_Write
 265              	.LVL28:
  62:main.c        ****     LED_1_Write(1);
 266              		.loc 1 62 0
 267 000c 0120     		movs	r0, #1
 268 000e FFF7FEFF 		bl	LED_1_Write
 269              	.LVL29:
  63:main.c        ****     LED_3_Write(1);
 270              		.loc 1 63 0
 271 0012 0120     		movs	r0, #1
 272 0014 FFF7FEFF 		bl	LED_3_Write
 273              	.LVL30:
  64:main.c        ****     LED_7_Write(1);
 274              		.loc 1 64 0
 275 0018 0120     		movs	r0, #1
 276 001a FFF7FEFF 		bl	LED_7_Write
 277              	.LVL31:
  65:main.c        ****     LED_2_Write(1);
ARM GAS  C:\Users\User\AppData\Local\Temp\ccHQyINu.s 			page 7


 278              		.loc 1 65 0
 279 001e 0120     		movs	r0, #1
 280 0020 FFF7FEFF 		bl	LED_2_Write
 281              	.LVL32:
  66:main.c        ****     LED_6_Write(1);
 282              		.loc 1 66 0
 283 0024 0120     		movs	r0, #1
 284 0026 FFF7FEFF 		bl	LED_6_Write
 285              	.LVL33:
 286 002a 08BD     		pop	{r3, pc}
 287              		.cfi_endproc
 288              	.LFE69:
 289              		.size	six, .-six
 290              		.section	.text.main,"ax",%progbits
 291              		.align	2
 292              		.global	main
 293              		.thumb
 294              		.thumb_func
 295              		.type	main, %function
 296              	main:
 297              	.LFB70:
  67:main.c        ****     
  68:main.c        **** }
  69:main.c        **** 
  70:main.c        **** int main(void)
  71:main.c        **** {
 298              		.loc 1 71 0
 299              		.cfi_startproc
 300              		@ Volatile: function does not return.
 301              		@ args = 0, pretend = 0, frame = 0
 302              		@ frame_needed = 0, uses_anonymous_args = 0
 303 0000 08B5     		push	{r3, lr}
 304              		.cfi_def_cfa_offset 8
 305              		.cfi_offset 3, -8
 306              		.cfi_offset 14, -4
  72:main.c        ****     CyGlobalIntEnable; /* Enable global interrupts. */
 307              		.loc 1 72 0
 308              		.syntax unified
 309              	@ 72 "main.c" 1
 310 0002 62B6     		CPSIE   i
 311              	@ 0 "" 2
 312              		.thumb
 313              		.syntax unified
 314              	.L29:
  73:main.c        **** 
  74:main.c        ****     /* Place your initialization/startup code here (e.g. MyInst_Start()) */
  75:main.c        **** 
  76:main.c        ****     for(;;)
  77:main.c        ****     {
  78:main.c        ****         if (Taster_Read() == 0) {
 315              		.loc 1 78 0
 316 0004 FFF7FEFF 		bl	Taster_Read
 317              	.LVL34:
 318 0008 40B9     		cbnz	r0, .L16
  79:main.c        ****             one();
 319              		.loc 1 79 0
 320 000a FFF7FEFF 		bl	one
ARM GAS  C:\Users\User\AppData\Local\Temp\ccHQyINu.s 			page 8


 321              	.LVL35:
  80:main.c        ****             CyDelay(250);
 322              		.loc 1 80 0
 323 000e FA20     		movs	r0, #250
 324 0010 FFF7FEFF 		bl	CyDelay
 325              	.LVL36:
  81:main.c        ****         } else {
  82:main.c        ****             for(;;){if (Taster_Read() == 0){main();}}
  83:main.c        ****         }
  84:main.c        ****         
  85:main.c        ****         if (Taster_Read() == 0) {
 326              		.loc 1 85 0
 327 0014 FFF7FEFF 		bl	Taster_Read
 328              	.LVL37:
 329 0018 30B1     		cbz	r0, .L17
 330 001a 0EE0     		b	.L18
 331              	.L16:
  82:main.c        ****         }
 332              		.loc 1 82 0
 333 001c FFF7FEFF 		bl	Taster_Read
 334              	.LVL38:
 335 0020 0028     		cmp	r0, #0
 336 0022 FBD1     		bne	.L16
  82:main.c        ****         }
 337              		.loc 1 82 0 is_stmt 0 discriminator 1
 338 0024 FFF7FEFF 		bl	main
 339              	.LVL39:
 340              	.L17:
  86:main.c        ****             two();
 341              		.loc 1 86 0 is_stmt 1
 342 0028 FFF7FEFF 		bl	two
 343              	.LVL40:
  87:main.c        ****             CyDelay(250);
 344              		.loc 1 87 0
 345 002c FA20     		movs	r0, #250
 346 002e FFF7FEFF 		bl	CyDelay
 347              	.LVL41:
  88:main.c        ****         } else {
  89:main.c        ****             for(;;){if (Taster_Read() == 0){main();}}
  90:main.c        ****         }
  91:main.c        ****         if (Taster_Read() == 0) {
 348              		.loc 1 91 0
 349 0032 FFF7FEFF 		bl	Taster_Read
 350              	.LVL42:
 351 0036 30B1     		cbz	r0, .L19
 352 0038 0EE0     		b	.L20
 353              	.L18:
  89:main.c        ****         }
 354              		.loc 1 89 0
 355 003a FFF7FEFF 		bl	Taster_Read
 356              	.LVL43:
 357 003e 0028     		cmp	r0, #0
 358 0040 FBD1     		bne	.L18
  89:main.c        ****         }
 359              		.loc 1 89 0 is_stmt 0 discriminator 1
 360 0042 FFF7FEFF 		bl	main
 361              	.LVL44:
ARM GAS  C:\Users\User\AppData\Local\Temp\ccHQyINu.s 			page 9


 362              	.L19:
  92:main.c        ****             three();
 363              		.loc 1 92 0 is_stmt 1
 364 0046 FFF7FEFF 		bl	three
 365              	.LVL45:
  93:main.c        ****             CyDelay(250);
 366              		.loc 1 93 0
 367 004a FA20     		movs	r0, #250
 368 004c FFF7FEFF 		bl	CyDelay
 369              	.LVL46:
  94:main.c        ****         } else {
  95:main.c        ****             for(;;){if (Taster_Read() == 0){main();}}
  96:main.c        ****         }
  97:main.c        ****         if (Taster_Read() == 0) {
 370              		.loc 1 97 0
 371 0050 FFF7FEFF 		bl	Taster_Read
 372              	.LVL47:
 373 0054 30B1     		cbz	r0, .L21
 374 0056 0EE0     		b	.L22
 375              	.L20:
  95:main.c        ****         }
 376              		.loc 1 95 0
 377 0058 FFF7FEFF 		bl	Taster_Read
 378              	.LVL48:
 379 005c 0028     		cmp	r0, #0
 380 005e FBD1     		bne	.L20
  95:main.c        ****         }
 381              		.loc 1 95 0 is_stmt 0 discriminator 1
 382 0060 FFF7FEFF 		bl	main
 383              	.LVL49:
 384              	.L21:
  98:main.c        ****             four();
 385              		.loc 1 98 0 is_stmt 1
 386 0064 FFF7FEFF 		bl	four
 387              	.LVL50:
  99:main.c        ****             CyDelay(250);
 388              		.loc 1 99 0
 389 0068 FA20     		movs	r0, #250
 390 006a FFF7FEFF 		bl	CyDelay
 391              	.LVL51:
 100:main.c        ****         } else {
 101:main.c        ****             for(;;){if (Taster_Read() == 0){main();}}
 102:main.c        ****         }
 103:main.c        ****         if (Taster_Read() == 0) {
 392              		.loc 1 103 0
 393 006e FFF7FEFF 		bl	Taster_Read
 394              	.LVL52:
 395 0072 30B1     		cbz	r0, .L23
 396 0074 0EE0     		b	.L24
 397              	.L22:
 101:main.c        ****         }
 398              		.loc 1 101 0
 399 0076 FFF7FEFF 		bl	Taster_Read
 400              	.LVL53:
 401 007a 0028     		cmp	r0, #0
 402 007c FBD1     		bne	.L22
 101:main.c        ****         }
ARM GAS  C:\Users\User\AppData\Local\Temp\ccHQyINu.s 			page 10


 403              		.loc 1 101 0 is_stmt 0 discriminator 1
 404 007e FFF7FEFF 		bl	main
 405              	.LVL54:
 406              	.L23:
 104:main.c        ****             five();
 407              		.loc 1 104 0 is_stmt 1
 408 0082 FFF7FEFF 		bl	five
 409              	.LVL55:
 105:main.c        ****             CyDelay(250);
 410              		.loc 1 105 0
 411 0086 FA20     		movs	r0, #250
 412 0088 FFF7FEFF 		bl	CyDelay
 413              	.LVL56:
 106:main.c        ****         } else {
 107:main.c        ****             for(;;){if (Taster_Read() == 0){main();}}
 108:main.c        ****         }
 109:main.c        ****         if (Taster_Read() == 0) {
 414              		.loc 1 109 0
 415 008c FFF7FEFF 		bl	Taster_Read
 416              	.LVL57:
 417 0090 30B1     		cbz	r0, .L25
 418 0092 0EE0     		b	.L26
 419              	.L24:
 107:main.c        ****         }
 420              		.loc 1 107 0
 421 0094 FFF7FEFF 		bl	Taster_Read
 422              	.LVL58:
 423 0098 0028     		cmp	r0, #0
 424 009a FBD1     		bne	.L24
 107:main.c        ****         }
 425              		.loc 1 107 0 is_stmt 0 discriminator 1
 426 009c FFF7FEFF 		bl	main
 427              	.LVL59:
 428              	.L25:
 110:main.c        ****             six();
 429              		.loc 1 110 0 is_stmt 1
 430 00a0 FFF7FEFF 		bl	six
 431              	.LVL60:
 111:main.c        ****             CyDelay(250);
 432              		.loc 1 111 0
 433 00a4 FA20     		movs	r0, #250
 434 00a6 FFF7FEFF 		bl	CyDelay
 435              	.LVL61:
 112:main.c        ****         } else {
 113:main.c        ****             for(;;){if (Taster_Read() == 0){main();}}
 114:main.c        ****         }
 115:main.c        ****         if (Taster_Read() == 0) {
 436              		.loc 1 115 0
 437 00aa FFF7FEFF 		bl	Taster_Read
 438              	.LVL62:
 439 00ae 30B1     		cbz	r0, .L27
 440 00b0 0BE0     		b	.L28
 441              	.L26:
 113:main.c        ****         }
 442              		.loc 1 113 0
 443 00b2 FFF7FEFF 		bl	Taster_Read
 444              	.LVL63:
ARM GAS  C:\Users\User\AppData\Local\Temp\ccHQyINu.s 			page 11


 445 00b6 0028     		cmp	r0, #0
 446 00b8 FBD1     		bne	.L26
 113:main.c        ****         }
 447              		.loc 1 113 0 is_stmt 0 discriminator 1
 448 00ba FFF7FEFF 		bl	main
 449              	.LVL64:
 450              	.L27:
 116:main.c        ****             clear();
 451              		.loc 1 116 0 is_stmt 1
 452 00be FFF7FEFF 		bl	clear
 453              	.LVL65:
 117:main.c        ****             CyDelay(250);
 454              		.loc 1 117 0
 455 00c2 FA20     		movs	r0, #250
 456 00c4 FFF7FEFF 		bl	CyDelay
 457              	.LVL66:
 118:main.c        ****             
 119:main.c        ****         } else {
 120:main.c        ****             for(;;){if (Taster_Read() == 0){main();}}
 121:main.c        ****             
 122:main.c        ****         }
 123:main.c        ****     }
 458              		.loc 1 123 0
 459 00c8 9CE7     		b	.L29
 460              	.L28:
 120:main.c        ****             
 461              		.loc 1 120 0
 462 00ca FFF7FEFF 		bl	Taster_Read
 463              	.LVL67:
 464 00ce 0028     		cmp	r0, #0
 465 00d0 FBD1     		bne	.L28
 120:main.c        ****             
 466              		.loc 1 120 0 is_stmt 0 discriminator 1
 467 00d2 FFF7FEFF 		bl	main
 468              	.LVL68:
 469              		.cfi_endproc
 470              	.LFE70:
 471              		.size	main, .-main
 472 00d6 00BF     		.text
 473              	.Letext0:
 474              		.file 2 "c:\\program files (x86)\\cypress\\psoc creator\\4.4\\psoc creator\\import\\gnu\\arm\\5.4.
 475              		.file 3 "c:\\program files (x86)\\cypress\\psoc creator\\4.4\\psoc creator\\import\\gnu\\arm\\5.4.
 476              		.file 4 "Generated_Source\\PSoC5/LED_5.h"
 477              		.file 5 "Generated_Source\\PSoC5/LED_1.h"
 478              		.file 6 "Generated_Source\\PSoC5/LED_3.h"
 479              		.file 7 "Generated_Source\\PSoC5/LED_7.h"
 480              		.file 8 "Generated_Source\\PSoC5/LED_4.h"
 481              		.file 9 "Generated_Source\\PSoC5/LED_2.h"
 482              		.file 10 "Generated_Source\\PSoC5/LED_6.h"
 483              		.file 11 "Generated_Source\\PSoC5/Taster.h"
 484              		.file 12 "Generated_Source\\PSoC5/CyLib.h"
 485              		.file 13 "Generated_Source\\PSoC5/core_cm3.h"